; ModuleID = '9/663.c'
source_filename = "9/663.c"
target datalayout = "e-m:e-p270:32:32-p271:32:32-p272:64:64-i64:64-f80:128-n8:16:32:64-S128"
target triple = "x86_64-pc-linux-gnu"

%struct.data = type { [100 x i32], [100 x [15 x i8]] }

@.str = private unnamed_addr constant [3 x i8] c"%d\00", align 1
@.str.1 = private unnamed_addr constant [6 x i8] c"%s %d\00", align 1
@data = common dso_local global %struct.data zeroinitializer, align 4
@.str.2 = private unnamed_addr constant [4 x i8] c"%s\0A\00", align 1

; Function Attrs: noinline nounwind uwtable
define dso_local void @main() #0 {
  %1 = alloca i32, align 4
  %2 = alloca i32, align 4
  %3 = alloca i32, align 4
  %4 = alloca i32, align 4
  %5 = alloca i32, align 4
  store i32 0, i32* %3, align 4
  %6 = call i32 (i8*, ...) @__isoc99_scanf(i8* getelementptr inbounds ([3 x i8], [3 x i8]* @.str, i64 0, i64 0), i32* %5)
  store i32 0, i32* %1, align 4
  br label %7

7:                                                ; preds = %29, %0
  %8 = load i32, i32* %1, align 4
  %9 = load i32, i32* %5, align 4
  %10 = icmp slt i32 %8, %9
  br i1 %10, label %11, label %32

11:                                               ; preds = %7
  %12 = load i32, i32* %1, align 4
  %13 = sext i32 %12 to i64
  %14 = getelementptr inbounds [100 x [15 x i8]], [100 x [15 x i8]]* getelementptr inbounds (%struct.data, %struct.data* @data, i32 0, i32 1), i64 0, i64 %13
  %15 = getelementptr inbounds [15 x i8], [15 x i8]* %14, i64 0, i64 0
  %16 = load i32, i32* %1, align 4
  %17 = sext i32 %16 to i64
  %18 = getelementptr inbounds [100 x i32], [100 x i32]* getelementptr inbounds (%struct.data, %struct.data* @data, i32 0, i32 0), i64 0, i64 %17
  %19 = call i32 (i8*, ...) @__isoc99_scanf(i8* getelementptr inbounds ([6 x i8], [6 x i8]* @.str.1, i64 0, i64 0), i8* %15, i32* %18)
  %20 = load i32, i32* %1, align 4
  %21 = sext i32 %20 to i64
  %22 = getelementptr inbounds [100 x i32], [100 x i32]* getelementptr inbounds (%struct.data, %struct.data* @data, i32 0, i32 0), i64 0, i64 %21
  %23 = load i32, i32* %22, align 4
  %24 = icmp sge i32 %23, 60
  br i1 %24, label %25, label %28

25:                                               ; preds = %11
  %26 = load i32, i32* %3, align 4
  %27 = add nsw i32 %26, 1
  store i32 %27, i32* %3, align 4
  br label %28

28:                                               ; preds = %25, %11
  br label %29

29:                                               ; preds = %28
  %30 = load i32, i32* %1, align 4
  %31 = add nsw i32 %30, 1
  store i32 %31, i32* %1, align 4
  br label %7

32:                                               ; preds = %7
  store i32 0, i32* %4, align 4
  br label %33

33:                                               ; preds = %67, %32
  %34 = load i32, i32* %4, align 4
  %35 = load i32, i32* %3, align 4
  %36 = icmp slt i32 %34, %35
  br i1 %36, label %37, label %70

37:                                               ; preds = %33
  store i32 0, i32* %2, align 4
  store i32 0, i32* %1, align 4
  br label %38

38:                                               ; preds = %55, %37
  %39 = load i32, i32* %1, align 4
  %40 = load i32, i32* %5, align 4
  %41 = icmp slt i32 %39, %40
  br i1 %41, label %42, label %58

42:                                               ; preds = %38
  %43 = load i32, i32* %1, align 4
  %44 = sext i32 %43 to i64
  %45 = getelementptr inbounds [100 x i32], [100 x i32]* getelementptr inbounds (%struct.data, %struct.data* @data, i32 0, i32 0), i64 0, i64 %44
  %46 = load i32, i32* %45, align 4
  %47 = load i32, i32* %2, align 4
  %48 = sext i32 %47 to i64
  %49 = getelementptr inbounds [100 x i32], [100 x i32]* getelementptr inbounds (%struct.data, %struct.data* @data, i32 0, i32 0), i64 0, i64 %48
  %50 = load i32, i32* %49, align 4
  %51 = icmp sgt i32 %46, %50
  br i1 %51, label %52, label %54

52:                                               ; preds = %42
  %53 = load i32, i32* %1, align 4
  store i32 %53, i32* %2, align 4
  br label %54

54:                                               ; preds = %52, %42
  br label %55

55:                                               ; preds = %54
  %56 = load i32, i32* %1, align 4
  %57 = add nsw i32 %56, 1
  store i32 %57, i32* %1, align 4
  br label %38

58:                                               ; preds = %38
  %59 = load i32, i32* %2, align 4
  %60 = sext i32 %59 to i64
  %61 = getelementptr inbounds [100 x [15 x i8]], [100 x [15 x i8]]* getelementptr inbounds (%struct.data, %struct.data* @data, i32 0, i32 1), i64 0, i64 %60
  %62 = getelementptr inbounds [15 x i8], [15 x i8]* %61, i64 0, i64 0
  %63 = call i32 (i8*, ...) @printf(i8* getelementptr inbounds ([4 x i8], [4 x i8]* @.str.2, i64 0, i64 0), i8* %62)
  %64 = load i32, i32* %2, align 4
  %65 = sext i32 %64 to i64
  %66 = getelementptr inbounds [100 x i32], [100 x i32]* getelementptr inbounds (%struct.data, %struct.data* @data, i32 0, i32 0), i64 0, i64 %65
  store i32 0, i32* %66, align 4
  br label %67

67:                                               ; preds = %58
  %68 = load i32, i32* %4, align 4
  %69 = add nsw i32 %68, 1
  store i32 %69, i32* %4, align 4
  br label %33

70:                                               ; preds = %33
  store i32 0, i32* %1, align 4
  br label %71

71:                                               ; preds = %88, %70
  %72 = load i32, i32* %1, align 4
  %73 = load i32, i32* %5, align 4
  %74 = icmp slt i32 %72, %73
  br i1 %74, label %75, label %91

75:                                               ; preds = %71
  %76 = load i32, i32* %1, align 4
  %77 = sext i32 %76 to i64
  %78 = getelementptr inbounds [100 x i32], [100 x i32]* getelementptr inbounds (%struct.data, %struct.data* @data, i32 0, i32 0), i64 0, i64 %77
  %79 = load i32, i32* %78, align 4
  %80 = icmp ne i32 %79, 0
  br i1 %80, label %81, label %87

81:                                               ; preds = %75
  %82 = load i32, i32* %1, align 4
  %83 = sext i32 %82 to i64
  %84 = getelementptr inbounds [100 x [15 x i8]], [100 x [15 x i8]]* getelementptr inbounds (%struct.data, %struct.data* @data, i32 0, i32 1), i64 0, i64 %83
  %85 = getelementptr inbounds [15 x i8], [15 x i8]* %84, i64 0, i64 0
  %86 = call i32 (i8*, ...) @printf(i8* getelementptr inbounds ([4 x i8], [4 x i8]* @.str.2, i64 0, i64 0), i8* %85)
  br label %87

87:                                               ; preds = %81, %75
  br label %88

88:                                               ; preds = %87
  %89 = load i32, i32* %1, align 4
  %90 = add nsw i32 %89, 1
  store i32 %90, i32* %1, align 4
  br label %71

91:                                               ; preds = %71
  ret void
}

declare dso_local i32 @__isoc99_scanf(i8*, ...) #1

declare dso_local i32 @printf(i8*, ...) #1


!llvm.module.flags = !{!0}
!llvm.ident = !{!1}

!0 = !{i32 1, !"wchar_size", i32 4}
!1 = !{!"clang version 10.0.0-4ubuntu1 "}
